; Function Attrs: mustprogress ssp uwtable
define noundef zeroext i1 @_ZN6open3d7utility16IJsonConvertible26EigenMatrix6dFromJsonArrayERN5Eigen6MatrixIdLi6ELi6ELi0ELi6ELi6EEERKN4Json5ValueE(ptr noundef nonnull writeonly align 16 captures(none) dereferenceable(288) %0, ptr noundef nonnull align 8 dereferenceable(40) %1) local_unnamed_addr #1 align 2 {
  %3 = tail call noundef i32 @_ZNK4Json5Value4sizeEv(ptr noundef nonnull align 8 dereferenceable(40) %1)
  %.not = icmp eq i32 %3, 36
  br i1 %.not, label %.preheader, label %.loopexit

.preheader:                                       ; preds = %2, %.preheader
  %indvars.iv = phi i64 [ %indvars.iv.next, %.preheader ], [ 0, %2 ]
  %4 = trunc nuw nsw i64 %indvars.iv to i32
  %5 = tail call noundef nonnull align 8 dereferenceable(40) ptr @_ZNK4Json5ValueixEi(ptr noundef nonnull align 8 dereferenceable(40) %1, i32 noundef %4)
  %6 = tail call noundef double @_ZNK4Json5Value8asDoubleEv(ptr noundef nonnull align 8 dereferenceable(40) %5)
  %7 = getelementptr inbounds nuw double, ptr %0, i64 %indvars.iv
  store double %6, ptr %7, align 8, !tbaa !600
  %indvars.iv.next = add nuw nsw i64 %indvars.iv, 1
  %exitcond.not = icmp eq i64 %indvars.iv.next, 36
  br i1 %exitcond.not, label %.loopexit, label %.preheader, !llvm.loop !608

.loopexit:                                        ; preds = %.preheader, %2
  ret i1 %.not
}